Certificate:
    Data:
        Version: 1 (0x0)
        Serial Number: 4661 (0x1235)
    Signature Algorithm: md5WithRSAEncryption
        Issuer: O=MCAL WTF GMbh
        Validity
            Not Before: Nov 23 20:57:46 2022 GMT
            Not After : Nov 23 20:57:46 2023 GMT
        Subject: O=Plugin Signer
        Subject Public Key Info:
            Public Key Algorithm: rsaEncryption
                Public-Key: (2048 bit)
                Modulus:
                    00:b5:f1:73:34:03:ed:77:74:51:73:d3:fb:a5:6c:
                    7a:42:29:c6:af:dc:be:2c:62:82:b8:31:2b:28:40:
                    d6:ac:64:fd:26:6c:fe:3f:58:d7:e5:44:3d:43:cb:
                    df:7f:68:02:44:49:9f:e0:56:e8:cb:42:a8:df:0b:
                    fd:73:24:dd:04:ab:46:42:29:04:1d:48:05:6e:ed:
                    92:da:18:47:12:cd:ae:a6:6d:80:61:b7:0e:23:d4:
                    cf:46:c3:c4:c0:69:48:d4:68:8c:a2:51:78:a4:ed:
                    30:82:ab:40:3a:8e:57:1f:4c:82:0c:8d:c0:1f:b6:
                    56:c5:2f:59:30:76:2f:70:e0:9a:b1:ee:6b:4c:20:
                    2c:5d:62:60:64:30:ea:04:47:65:d6:5b:6e:30:55:
                    e0:41:ba:72:96:a3:7b:7d:72:66:dc:a2:b4:e4:7d:
                    d2:8e:38:99:e6:5d:0c:86:73:c6:1f:12:04:ed:45:
                    83:ec:44:82:db:0e:09:e7:41:c3:58:fd:ed:af:c4:
                    31:17:3d:41:8b:dd:a2:f5:10:2f:10:ea:f1:aa:af:
                    51:b2:ef:f1:4f:98:e5:d2:46:42:75:32:f2:75:2d:
                    e3:3b:e4:92:0b:48:cc:16:ca:82:02:ca:51:11:43:
                    fa:fe:dc:c0:6f:d3:5d:54:9b:6a:7f:32:c9:a2:99:
                    8e:83
                Exponent: 65537 (0x10001)
    Signature Algorithm: md5WithRSAEncryption
         21:f7:d6:78:98:b1:85:5f:19:71:b0:a4:61:93:e4:a6:ad:fb:
         6b:d6:d4:f6:22:af:99:cd:6f:7f:48:12:ff:08:6b:71:a3:16:
         8d:6e:d3:98:3a:99:1e:d3:3b:64:d7:8b:9f:85:4f:56:b8:b3:
         0e:45:ab:df:0d:d3:8f:ee:b6:02:32:f1:0b:3c:35:c7:0a:34:
         28:bb:5c:aa:68:56:c3:45:51:44:e0:b7:05:3d:11:7a:57:80:
         49:db:2e:1a:85:6d:38:7a:cb:1a:8b:e4:c8:ea:ce:0e:70:12:
         30:af:b9:f7:a5:f8:69:6b:61:1d:9f:c8:8a:45:d4:ae:6b:da:
         0d:18
-----BEGIN CERTIFICATE-----
MIICJDCCAY0CAhI1MA0GCSqGSIb3DQEBBAUAMBgxFjAUBgNVBAoMDU1DQUwgV1RG
IEdNYmgwHhcNMjIxMTIzMjA1NzQ2WhcNMjMxMTIzMjA1NzQ2WjAYMRYwFAYDVQQK
DA1QbHVnaW4gU2lnbmVyMIIBIjANBgkqhkiG9w0BAQEFAAOCAQ8AMIIBCgKCAQEA
tfFzNAPtd3RRc9P7pWx6QinGr9y+LGKCuDErKEDWrGT9Jmz+P1jX5UQ9Q8vff2gC
REmf4Fboy0Ko3wv9cyTdBKtGQikEHUgFbu2S2hhHEs2upm2AYbcOI9TPRsPEwGlI
1GiMolF4pO0wgqtAOo5XH0yCDI3AH7ZWxS9ZMHYvcOCase5rTCAsXWJgZDDqBEdl
1ltuMFXgQbpylqN7fXJm3KK05H3SjjiZ5l0MhnPGHxIE7UWD7ESC2w4J50HDWP3t
r8QxFz1Bi92i9RAvEOrxqq9Rsu/xT5jl0kZCdTLydS3jO+SSC0jMFsqCAspREUP6
/tzAb9NdVJtqfzLJopmOgwIDAQABMA0GCSqGSIb3DQEBBAUAA4GBACH31niYsYVf
GXGwpGGT5Kat+2vW1PYir5nNb39IEv8Ia3GjFo1u05g6mR7TO2TXi5+FT1a4sw5F
q98N04/utgIy8Qs8NccKNCi7XKpoVsNFUUTgtwU9EXpXgEnbLhqFbTh6yxqL5Mjq
zg5wEjCvufel+GlrYR2fyIpF1K5r2g0Y
-----END CERTIFICATE-----
