Certificate:
    Data:
        Version: 1 (0x0)
        Serial Number: 4662 (0x1236)
    Signature Algorithm: md5WithRSAEncryption
        Issuer: O=MCAL WTF GMbh
        Validity
            Not Before: Nov 23 21:04:09 2022 GMT
            Not After : Nov 23 21:04:09 2023 GMT
        Subject: O=Plugin Signer 2
        Subject Public Key Info:
            Public Key Algorithm: rsaEncryption
                Public-Key: (2048 bit)
                Modulus:
                    00:cd:60:dd:62:88:96:09:29:8d:1b:45:90:9f:dc:
                    1c:31:20:4c:27:5b:8e:d9:59:0f:1b:77:f0:00:7e:
                    94:a5:23:fd:c8:47:bb:17:57:69:5d:c8:9e:45:5a:
                    07:b9:fa:38:4d:ab:53:04:ce:f6:f0:c6:6d:ef:b3:
                    77:56:58:21:8e:31:3d:2b:48:9a:c1:9f:ff:79:62:
                    0b:77:12:04:a5:ee:4e:8c:27:89:b3:9e:9c:50:6d:
                    9b:32:00:ac:33:9e:05:a4:99:34:c3:20:b2:64:96:
                    74:f2:5c:fc:7c:02:3d:66:6f:3e:9c:61:f7:db:7f:
                    c2:28:4d:f9:4a:96:17:bc:f7:3e:18:34:34:4c:17:
                    f9:76:f4:22:12:b5:3e:46:6a:ad:c7:0d:e4:91:38:
                    e4:64:71:99:99:4d:75:eb:e9:72:90:a0:39:9a:9d:
                    59:69:98:ae:d9:78:93:a3:26:3c:92:2c:89:cf:89:
                    c6:fc:9d:b3:55:9a:1e:ac:9b:20:5c:47:81:bf:b0:
                    7e:a7:35:c9:4b:96:1a:03:e3:1f:93:93:fd:4b:50:
                    dd:9f:4c:34:ec:69:f2:f7:28:4e:5b:79:5a:e4:0e:
                    c2:69:4e:ce:54:cc:61:16:10:af:68:83:6b:2b:0e:
                    7f:1f:4e:be:bc:84:bd:3e:f9:94:aa:9b:87:ca:e2:
                    03:0b
                Exponent: 65537 (0x10001)
    Signature Algorithm: md5WithRSAEncryption
         14:c7:fd:9e:77:29:95:70:b0:12:17:72:a0:46:e2:62:52:45:
         84:79:0f:da:fb:59:b0:ce:c1:5b:87:98:78:14:42:3e:27:a9:
         23:62:4e:29:14:6d:77:42:9a:55:8b:fc:66:59:8c:dd:b6:f4:
         8a:c1:d7:8e:79:13:f8:17:b5:7d:7d:dc:98:d1:af:6e:9a:5b:
         8a:20:20:5e:25:2e:20:ed:70:ab:0b:19:90:a8:f3:55:f9:5f:
         07:e8:01:60:47:3c:91:3e:6d:d7:28:62:44:9c:b8:ad:27:72:
         73:cc:8e:03:5f:1d:a3:6b:e3:5c:3a:04:74:49:6a:91:7f:3f:
         3a:26
-----BEGIN CERTIFICATE-----
MIICJjCCAY8CAhI2MA0GCSqGSIb3DQEBBAUAMBgxFjAUBgNVBAoMDU1DQUwgV1RG
IEdNYmgwHhcNMjIxMTIzMjEwNDA5WhcNMjMxMTIzMjEwNDA5WjAaMRgwFgYDVQQK
DA9QbHVnaW4gU2lnbmVyIDIwggEiMA0GCSqGSIb3DQEBAQUAA4IBDwAwggEKAoIB
AQDNYN1iiJYJKY0bRZCf3BwxIEwnW47ZWQ8bd/AAfpSlI/3IR7sXV2ldyJ5FWge5
+jhNq1MEzvbwxm3vs3dWWCGOMT0rSJrBn/95Ygt3EgSl7k6MJ4mznpxQbZsyAKwz
ngWkmTTDILJklnTyXPx8Aj1mbz6cYffbf8IoTflKlhe89z4YNDRMF/l29CIStT5G
aq3HDeSROORkcZmZTXXr6XKQoDmanVlpmK7ZeJOjJjySLInPicb8nbNVmh6smyBc
R4G/sH6nNclLlhoD4x+Tk/1LUN2fTDTsafL3KE5beVrkDsJpTs5UzGEWEK9og2sr
Dn8fTr68hL0++ZSqm4fK4gMLAgMBAAEwDQYJKoZIhvcNAQEEBQADgYEAFMf9nncp
lXCwEhdyoEbiYlJFhHkP2vtZsM7BW4eYeBRCPiepI2JOKRRtd0KaVYv8ZlmM3bb0
isHXjnkT+Be1fX3cmNGvbppbiiAgXiUuIO1wqwsZkKjzVflfB+gBYEc8kT5t1yhi
RJy4rSdyc8yOA18do2vjXDoEdElqkX8/OiY=
-----END CERTIFICATE-----
