Certificate:
    Data:
        Version: 1 (0x0)
        Serial Number: 4663 (0x1237)
    Signature Algorithm: md5WithRSAEncryption
        Issuer: O=MCAL WTF GMbh
        Validity
            Not Before: Nov 23 21:07:56 2022 GMT
            Not After : Nov 23 21:07:56 2023 GMT
        Subject: O=Plugin Signer 3
        Subject Public Key Info:
            Public Key Algorithm: rsaEncryption
                Public-Key: (2048 bit)
                Modulus:
                    00:98:4f:4a:1b:6a:10:ac:83:40:c7:39:a0:57:27:
                    31:50:d5:a4:90:a6:3b:bb:5a:25:76:f9:25:e7:25:
                    97:02:d9:93:c7:45:dd:f5:c1:25:3b:48:06:d7:27:
                    bf:bf:f7:f4:e2:e9:b3:24:df:59:9e:27:18:80:6b:
                    f2:71:2e:6f:97:7c:1b:af:29:d4:2a:3d:20:b4:eb:
                    18:50:f0:f7:89:ab:bc:8e:0a:5b:92:47:27:29:2f:
                    31:5b:76:ba:84:58:0d:a5:45:f1:ec:e9:a5:12:6c:
                    ee:a7:f6:ae:a3:3c:b9:8e:84:33:9e:56:87:2d:85:
                    4e:70:c6:13:13:8a:af:3c:e6:c1:9a:95:06:4d:13:
                    22:e2:c6:f9:4d:d6:97:2e:51:a7:42:ad:ae:e0:0c:
                    32:3e:4f:dc:36:64:4d:0f:e2:f8:06:13:ac:d1:c5:
                    7b:d4:c7:ab:b9:59:00:59:0c:f1:ce:5a:36:36:ca:
                    f3:aa:98:8d:dd:3b:36:de:07:41:89:6c:a3:74:85:
                    f0:66:5f:1f:75:d5:fe:6d:73:2b:44:31:37:8d:7c:
                    6d:ff:41:ba:aa:00:18:85:07:b0:a7:03:79:63:9a:
                    70:03:e3:7d:e3:dd:be:b8:cf:eb:6b:59:e6:55:d0:
                    47:6a:cb:80:57:3f:80:5e:e2:67:6a:30:b8:86:c3:
                    f5:9d
                Exponent: 65537 (0x10001)
    Signature Algorithm: md5WithRSAEncryption
         40:82:76:ce:75:91:e4:3f:9d:aa:b3:60:b2:f4:c3:f5:3c:f3:
         2e:00:35:80:6b:a8:ba:be:b3:d6:2c:75:cb:ca:b4:eb:d3:cd:
         3c:65:ae:45:45:dc:f2:fd:65:97:9a:a7:87:97:79:17:f5:fc:
         85:89:08:3b:e4:e6:22:ce:98:88:16:0e:a9:a7:82:d1:7e:32:
         fe:60:11:c8:f3:b3:14:09:6c:e5:63:71:9e:5c:80:6d:27:6b:
         4f:e3:86:c2:87:6e:05:c4:ca:c7:b6:7f:33:ee:6b:a3:4d:00:
         af:8a:ee:17:8a:35:3f:74:70:fa:3b:4a:1c:0c:24:a4:04:40:
         c2:88
-----BEGIN CERTIFICATE-----
MIICJjCCAY8CAhI3MA0GCSqGSIb3DQEBBAUAMBgxFjAUBgNVBAoMDU1DQUwgV1RG
IEdNYmgwHhcNMjIxMTIzMjEwNzU2WhcNMjMxMTIzMjEwNzU2WjAaMRgwFgYDVQQK
DA9QbHVnaW4gU2lnbmVyIDMwggEiMA0GCSqGSIb3DQEBAQUAA4IBDwAwggEKAoIB
AQCYT0obahCsg0DHOaBXJzFQ1aSQpju7WiV2+SXnJZcC2ZPHRd31wSU7SAbXJ7+/
9/Ti6bMk31meJxiAa/JxLm+XfBuvKdQqPSC06xhQ8PeJq7yOCluSRycpLzFbdrqE
WA2lRfHs6aUSbO6n9q6jPLmOhDOeVocthU5wxhMTiq885sGalQZNEyLixvlN1pcu
UadCra7gDDI+T9w2ZE0P4vgGE6zRxXvUx6u5WQBZDPHOWjY2yvOqmI3dOzbeB0GJ
bKN0hfBmXx911f5tcytEMTeNfG3/QbqqABiFB7CnA3ljmnAD433j3b64z+trWeZV
0Edqy4BXP4Be4mdqMLiGw/WdAgMBAAEwDQYJKoZIhvcNAQEEBQADgYEAQIJ2znWR
5D+dqrNgsvTD9TzzLgA1gGuour6z1ix1y8q069PNPGWuRUXc8v1ll5qnh5d5F/X8
hYkIO+TmIs6YiBYOqaeC0X4y/mARyPOzFAls5WNxnlyAbSdrT+OGwoduBcTKx7Z/
M+5ro00Ar4ruF4o1P3Rw+jtKHAwkpARAwog=
-----END CERTIFICATE-----
