Certificate:
    Data:
        Version: 1 (0x0)
        Serial Number: 4664 (0x1238)
    Signature Algorithm: md5WithRSAEncryption
        Issuer: O=MCAL WTF GMbh
        Validity
            Not Before: Nov 23 21:15:41 2022 GMT
            Not After : Nov 23 21:15:41 2023 GMT
        Subject: O=Plugin Signer 4
        Subject Public Key Info:
            Public Key Algorithm: rsaEncryption
                Public-Key: (2048 bit)
                Modulus:
                    00:ba:26:65:43:b6:0e:db:24:23:54:3c:1b:b4:b1:
                    f7:88:02:aa:c1:cf:3f:1f:e5:ff:73:59:eb:26:bc:
                    16:8f:af:2d:2f:ed:46:17:44:53:c6:a0:12:cb:f8:
                    c0:c5:63:bb:ff:17:db:81:5c:69:b7:11:45:da:7e:
                    93:64:99:59:ae:a7:b9:e0:e8:7b:54:d6:39:79:7f:
                    81:2a:26:5e:0c:c9:c4:c8:89:ca:5b:d8:fb:94:e3:
                    fa:63:aa:bc:80:8d:c3:56:84:41:0a:1f:b7:88:0e:
                    a9:de:93:24:c5:fd:b0:33:45:07:2d:40:9a:03:c5:
                    f4:81:08:cc:76:6c:4b:1a:d0:f2:41:de:ee:5d:e5:
                    8a:0f:67:88:8c:04:b3:cb:f1:e4:fb:de:c8:89:3a:
                    f7:9c:b7:fd:fc:ee:51:4b:64:72:69:8d:73:b3:5c:
                    46:a1:63:ca:06:f2:bf:8c:32:af:e5:73:b8:3f:aa:
                    8e:76:51:99:29:f6:e2:d7:ca:be:49:f5:21:57:64:
                    9d:5f:93:a4:3f:99:25:b5:ae:5e:84:0f:6c:d6:62:
                    ad:5e:9d:24:60:9a:13:09:38:22:e6:08:ee:ab:d0:
                    ac:84:58:d4:c0:48:f4:05:97:24:4e:99:44:93:be:
                    34:f9:fa:6b:01:cb:0d:ec:d0:3c:90:22:2c:5a:d1:
                    5d:af
                Exponent: 65537 (0x10001)
        X509v3 extensions:
            X509v3 Key Usage: critical
                Digital Signature
            X509v3 Authority Key Identifier: 
                keyid:AE:C4:79:62:2D:60:94:F6:D1:9F:73:92:35:CC:44:5D:8E:1F:CC:74

            X509v3 Subject Key Identifier: 
                AE:C4:79:62:2D:60:94:F6:D1:9F:73:92:35:CC:44:5D:8E:1F:CC:74
            X509v3 Extended Key Usage: 
                Code Signing
    Signature Algorithm: md5WithRSAEncryption
         30:e5:7c:94:57:63:84:b2:e7:2b:46:5e:f4:58:94:2c:aa:74:
         66:47:4a:51:7a:26:f3:66:78:44:b0:b6:9b:ae:0a:ce:34:4e:
         89:af:1f:c5:27:57:3a:e0:7e:a9:5f:b5:60:ba:1a:f5:b2:38:
         9a:a3:ad:aa:f9:ca:21:9c:4a:1f:cf:68:a5:b7:79:b2:55:7f:
         35:69:c6:57:9a:18:4c:7a:1b:9e:5f:b9:81:99:2f:84:ce:6d:
         7d:42:93:0d:55:57:c4:de:7c:8e:3e:f2:d4:74:a3:46:2c:76:
         4b:1c:a8:ad:09:7a:e0:76:7f:af:4c:b6:29:33:51:73:92:06:
         b9:b7
-----BEGIN CERTIFICATE-----
MIICjzCCAfgCAhI4MA0GCSqGSIb3DQEBBAUAMBgxFjAUBgNVBAoMDU1DQUwgV1RG
IEdNYmgwHhcNMjIxMTIzMjExNTQxWhcNMjMxMTIzMjExNTQxWjAaMRgwFgYDVQQK
DA9QbHVnaW4gU2lnbmVyIDQwggEiMA0GCSqGSIb3DQEBAQUAA4IBDwAwggEKAoIB
AQC6JmVDtg7bJCNUPBu0sfeIAqrBzz8f5f9zWesmvBaPry0v7UYXRFPGoBLL+MDF
Y7v/F9uBXGm3EUXafpNkmVmup7ng6HtU1jl5f4EqJl4MycTIicpb2PuU4/pjqryA
jcNWhEEKH7eIDqnekyTF/bAzRQctQJoDxfSBCMx2bEsa0PJB3u5d5YoPZ4iMBLPL
8eT73siJOvect/387lFLZHJpjXOzXEahY8oG8r+MMq/lc7g/qo52UZkp9uLXyr5J
9SFXZJ1fk6Q/mSW1rl6ED2zWYq1enSRgmhMJOCLmCO6r0KyEWNTASPQFlyROmUST
vjT5+msByw3s0DyQIixa0V2vAgMBAAGjZzBlMA4GA1UdDwEB/wQEAwIHgDAfBgNV
HSMEGDAWgBSuxHliLWCU9tGfc5I1zERdjh/MdDAdBgNVHQ4EFgQUrsR5Yi1glPbR
n3OSNcxEXY4fzHQwEwYDVR0lBAwwCgYIKwYBBQUHAwMwDQYJKoZIhvcNAQEEBQAD
gYEAMOV8lFdjhLLnK0Ze9FiULKp0ZkdKUXom82Z4RLC2m64KzjROia8fxSdXOuB+
qV+1YLoa9bI4mqOtqvnKIZxKH89opbd5slV/NWnGV5oYTHobnl+5gZkvhM5tfUKT
DVVXxN58jj7y1HSjRix2SxyorQl64HZ/r0y2KTNRc5IGubc=
-----END CERTIFICATE-----
