Certificate:
    Data:
        Version: 1 (0x0)
        Serial Number: 4665 (0x1239)
    Signature Algorithm: md5WithRSAEncryption
        Issuer: O=MCAL WTF GMbh
        Validity
            Not Before: Nov 23 21:19:01 2022 GMT
            Not After : Nov 23 21:19:01 2023 GMT
        Subject: O=Plugin Signer 5
        Subject Public Key Info:
            Public Key Algorithm: rsaEncryption
                Public-Key: (2048 bit)
                Modulus:
                    00:bd:23:14:74:c5:15:9a:d3:ec:14:bb:90:df:e4:
                    33:fb:90:36:22:72:71:9e:fa:81:2d:3d:11:50:a7:
                    d3:7f:83:7f:98:6f:cd:b8:c8:6d:20:10:ec:61:f3:
                    41:ef:3b:e0:09:bd:e3:1e:e8:05:68:49:88:00:0d:
                    ad:71:bd:c6:91:31:04:5c:00:a0:12:66:84:07:e7:
                    00:16:f0:10:19:0c:e5:10:85:13:de:f0:1a:cb:45:
                    ba:58:63:38:90:d1:65:99:a1:92:2b:dc:60:b5:56:
                    7b:26:f4:7f:67:65:93:ea:4e:7c:bb:23:b9:9e:0d:
                    59:f5:b8:a8:56:32:9f:b7:1d:67:51:85:5c:07:b7:
                    08:52:69:d6:bb:a4:63:20:82:6f:f5:c4:57:8f:d0:
                    5e:02:1d:c2:e7:08:02:5e:d3:8c:f8:ab:72:41:37:
                    5d:03:63:c9:a2:17:90:20:65:7f:3f:7a:6f:e7:e3:
                    6a:2e:ae:c2:ef:98:c6:6e:21:f4:43:ab:48:c1:71:
                    f8:6a:88:13:a5:c1:3a:35:99:69:aa:be:ba:e7:9c:
                    64:6a:99:47:62:80:8a:79:3f:67:43:f2:81:ba:fa:
                    69:8a:0b:e7:6f:74:fa:a9:63:e3:b3:d3:c1:ad:cb:
                    f7:9f:1d:98:30:ce:51:d7:91:67:8a:5b:08:d6:f5:
                    02:0f
                Exponent: 65537 (0x10001)
        X509v3 extensions:
            X509v3 Key Usage: critical
                Digital Signature
            X509v3 Authority Key Identifier: 
                keyid:C5:FC:6A:18:31:D1:A8:1C:1E:B5:A4:B0:E4:8E:B7:15:08:6E:46:4D

            X509v3 Subject Key Identifier: 
                C5:FC:6A:18:31:D1:A8:1C:1E:B5:A4:B0:E4:8E:B7:15:08:6E:46:4D
            X509v3 Extended Key Usage: 
                Code Signing
    Signature Algorithm: md5WithRSAEncryption
         59:89:33:d6:65:9e:bb:4b:06:5a:c6:d7:cc:10:30:08:c7:d8:
         fc:d0:8f:78:8f:6d:a5:75:a5:3b:c4:2b:26:77:38:4a:60:97:
         da:70:4d:27:cf:5b:fc:98:d8:c0:00:64:f5:25:11:88:94:ee:
         96:08:62:19:eb:99:c2:b4:d0:d5:39:5b:1a:6c:ac:5a:b0:55:
         a4:92:63:6f:6c:11:d1:ec:ab:d9:32:05:3e:17:26:0e:72:62:
         50:90:f1:29:92:5e:46:1a:ac:91:f6:14:d5:0c:51:03:ac:4a:
         20:4b:5a:0a:e4:07:71:28:82:89:6a:09:5e:e2:40:f2:c9:5b:
         af:3c
-----BEGIN CERTIFICATE-----
MIICjzCCAfgCAhI5MA0GCSqGSIb3DQEBBAUAMBgxFjAUBgNVBAoMDU1DQUwgV1RG
IEdNYmgwHhcNMjIxMTIzMjExOTAxWhcNMjMxMTIzMjExOTAxWjAaMRgwFgYDVQQK
DA9QbHVnaW4gU2lnbmVyIDUwggEiMA0GCSqGSIb3DQEBAQUAA4IBDwAwggEKAoIB
AQC9IxR0xRWa0+wUu5Df5DP7kDYicnGe+oEtPRFQp9N/g3+Yb824yG0gEOxh80Hv
O+AJveMe6AVoSYgADa1xvcaRMQRcAKASZoQH5wAW8BAZDOUQhRPe8BrLRbpYYziQ
0WWZoZIr3GC1Vnsm9H9nZZPqTny7I7meDVn1uKhWMp+3HWdRhVwHtwhSada7pGMg
gm/1xFeP0F4CHcLnCAJe04z4q3JBN10DY8miF5AgZX8/em/n42oursLvmMZuIfRD
q0jBcfhqiBOlwTo1mWmqvrrnnGRqmUdigIp5P2dD8oG6+mmKC+dvdPqpY+Oz08Gt
y/efHZgwzlHXkWeKWwjW9QIPAgMBAAGjZzBlMA4GA1UdDwEB/wQEAwIHgDAfBgNV
HSMEGDAWgBTF/GoYMdGoHB61pLDkjrcVCG5GTTAdBgNVHQ4EFgQUxfxqGDHRqBwe
taSw5I63FQhuRk0wEwYDVR0lBAwwCgYIKwYBBQUHAwMwDQYJKoZIhvcNAQEEBQAD
gYEAWYkz1mWeu0sGWsbXzBAwCMfY/NCPeI9tpXWlO8QrJnc4SmCX2nBNJ89b/JjY
wABk9SURiJTulghiGeuZwrTQ1TlbGmysWrBVpJJjb2wR0eyr2TIFPhcmDnJiUJDx
KZJeRhqskfYU1QxRA6xKIEtaCuQHcSiCiWoJXuJA8slbrzw=
-----END CERTIFICATE-----
