Certificate:
    Data:
        Version: 1 (0x0)
        Serial Number: 4666 (0x123a)
    Signature Algorithm: md5WithRSAEncryption
        Issuer: O=MCAL WTF GMbh
        Validity
            Not Before: Nov 23 21:21:33 2022 GMT
            Not After : Nov 23 21:21:33 2023 GMT
        Subject: O=Plugin Signer 6
        Subject Public Key Info:
            Public Key Algorithm: rsaEncryption
                Public-Key: (2048 bit)
                Modulus:
                    00:bb:24:09:f3:6c:f0:2b:15:88:8f:b3:85:b6:11:
                    f6:ab:d2:62:39:ae:ee:ef:04:20:82:d8:49:3a:14:
                    b6:06:43:15:02:c2:b1:a0:3d:f0:42:32:2e:7e:a4:
                    80:cc:6e:1b:a9:b8:26:ed:9f:f1:22:1e:ba:b9:35:
                    fa:08:e1:b1:32:fe:f3:e8:cc:6d:ee:7d:b5:83:4d:
                    d5:24:5f:63:1f:71:36:9d:2c:f6:d4:62:68:3b:ff:
                    75:ba:e1:f7:fd:5c:1d:07:eb:7a:05:79:3f:f4:2e:
                    67:b7:a1:38:61:60:7f:b6:62:f7:5c:f5:18:1d:bb:
                    00:0f:8a:b1:b7:12:2f:f3:d1:1d:86:32:ce:a1:e4:
                    81:ff:31:58:9c:4b:b6:84:91:32:71:fa:fb:3e:7e:
                    ff:77:3e:b5:bf:0f:1b:1e:d0:cd:20:1d:f3:28:1c:
                    b1:16:34:a0:80:50:41:f6:34:d2:ac:07:db:04:12:
                    34:89:0f:b0:b6:5d:74:c0:7d:89:71:d4:cf:ab:41:
                    5b:e1:61:a0:d3:ed:57:ce:44:bb:9d:22:38:69:81:
                    47:ee:89:ee:1f:71:89:d2:64:5f:42:fc:0b:60:7f:
                    eb:5f:e1:88:35:6a:cf:8e:11:72:fc:25:ef:7e:b0:
                    84:72:49:ad:a1:77:f7:eb:f2:e7:c8:c5:ea:9f:96:
                    b8:fd
                Exponent: 65537 (0x10001)
        X509v3 extensions:
            X509v3 Key Usage: critical
                Digital Signature
            X509v3 Authority Key Identifier: 
                keyid:05:FA:22:58:16:35:3E:EF:23:3B:DC:5D:63:4D:7E:AE:D5:38:A0:F2

            X509v3 Subject Key Identifier: 
                05:FA:22:58:16:35:3E:EF:23:3B:DC:5D:63:4D:7E:AE:D5:38:A0:F2
            X509v3 Extended Key Usage: 
                Code Signing
    Signature Algorithm: md5WithRSAEncryption
         68:14:c4:26:a4:ad:63:3f:82:4b:ba:11:46:61:50:37:33:3f:
         0a:2c:33:e6:a7:73:ed:d6:16:4e:dc:a3:49:b9:b7:b7:ce:fc:
         52:21:41:43:13:20:6a:28:dc:81:c7:2e:a3:19:02:92:77:fb:
         a7:5b:33:89:c8:4a:de:93:01:33:61:30:fd:98:11:59:a3:75:
         90:e5:8f:84:ce:be:06:81:4b:82:dd:d8:d6:f0:63:1f:c8:dd:
         23:42:4a:8d:de:ab:59:c1:7e:8f:41:50:b7:73:cd:31:bd:9f:
         d9:24:c7:1d:bc:5b:be:3d:ed:c7:ab:5b:6d:e3:e6:d3:c6:4a:
         c5:bc
-----BEGIN CERTIFICATE-----
MIICjzCCAfgCAhI6MA0GCSqGSIb3DQEBBAUAMBgxFjAUBgNVBAoMDU1DQUwgV1RG
IEdNYmgwHhcNMjIxMTIzMjEyMTMzWhcNMjMxMTIzMjEyMTMzWjAaMRgwFgYDVQQK
DA9QbHVnaW4gU2lnbmVyIDYwggEiMA0GCSqGSIb3DQEBAQUAA4IBDwAwggEKAoIB
AQC7JAnzbPArFYiPs4W2Efar0mI5ru7vBCCC2Ek6FLYGQxUCwrGgPfBCMi5+pIDM
bhupuCbtn/EiHrq5NfoI4bEy/vPozG3ufbWDTdUkX2MfcTadLPbUYmg7/3W64ff9
XB0H63oFeT/0Lme3oThhYH+2Yvdc9RgduwAPirG3Ei/z0R2GMs6h5IH/MVicS7aE
kTJx+vs+fv93PrW/Dxse0M0gHfMoHLEWNKCAUEH2NNKsB9sEEjSJD7C2XXTAfYlx
1M+rQVvhYaDT7VfORLudIjhpgUfuie4fcYnSZF9C/Atgf+tf4Yg1as+OEXL8Je9+
sIRySa2hd/fr8ufIxeqflrj9AgMBAAGjZzBlMA4GA1UdDwEB/wQEAwIHgDAfBgNV
HSMEGDAWgBQF+iJYFjU+7yM73F1jTX6u1Tig8jAdBgNVHQ4EFgQUBfoiWBY1Pu8j
O9xdY01+rtU4oPIwEwYDVR0lBAwwCgYIKwYBBQUHAwMwDQYJKoZIhvcNAQEEBQAD
gYEAaBTEJqStYz+CS7oRRmFQNzM/Ciwz5qdz7dYWTtyjSbm3t878UiFBQxMgaijc
gccuoxkCknf7p1szichK3pMBM2Ew/ZgRWaN1kOWPhM6+BoFLgt3Y1vBjH8jdI0JK
jd6rWcF+j0FQt3PNMb2f2STHHbxbvj3tx6tbbePm08ZKxbw=
-----END CERTIFICATE-----
