Certificate:
    Data:
        Version: 1 (0x0)
        Serial Number: 4667 (0x123b)
    Signature Algorithm: md5WithRSAEncryption
        Issuer: O=MCAL WTF GMbh
        Validity
            Not Before: Nov 30 00:35:15 2022 GMT
            Not After : Nov 30 00:35:15 2023 GMT
        Subject: CN=Self Signed 10
        Subject Public Key Info:
            Public Key Algorithm: rsaEncryption
                Public-Key: (2048 bit)
                Modulus:
                    00:b8:24:d9:59:5a:12:23:4d:5a:05:2f:83:74:cd:
                    6f:31:9e:2d:88:4f:9e:32:48:6a:4b:67:06:f6:39:
                    27:c0:50:5c:98:48:a7:ff:2c:ce:94:55:4f:81:ae:
                    ee:b8:b2:ff:e0:0d:14:c0:58:9b:f6:90:f2:f3:7c:
                    a5:7b:5d:54:51:b5:20:2e:fa:a6:a8:53:63:ef:58:
                    90:c1:2a:0d:64:7a:c2:03:73:95:12:a8:61:74:b1:
                    16:0b:7b:c7:75:62:5d:65:00:92:cc:90:47:dc:37:
                    b4:c9:7e:8f:3b:71:20:cf:62:25:ee:d3:c6:1a:f3:
                    c2:a6:a2:f1:d5:ef:0e:a9:1b:d9:d6:59:33:c8:53:
                    e1:3b:c6:97:b1:f2:97:66:8c:62:88:cc:8c:67:29:
                    e6:c4:59:ec:79:e8:82:1a:70:c7:64:f5:03:b9:96:
                    92:8e:29:57:17:89:1d:41:dd:cd:17:eb:5c:1b:1c:
                    88:57:7d:53:ad:6a:be:2a:ed:b2:af:a6:79:a1:ce:
                    31:32:6e:ea:81:c0:2c:f5:b3:36:76:06:3c:94:11:
                    3e:35:42:40:fd:55:99:c9:14:03:90:a7:cf:97:13:
                    12:7e:fd:fe:8e:e4:e3:39:1b:e0:1f:d6:11:36:7d:
                    e3:61:64:92:71:59:b5:36:a7:6f:4d:c9:57:08:1d:
                    c2:7d
                Exponent: 65537 (0x10001)
        X509v3 extensions:
            X509v3 Key Usage: critical
                Digital Signature
            X509v3 Authority Key Identifier: 
                keyid:E1:8B:D1:C3:3D:E9:73:20:3F:DB:CB:6A:22:9E:57:14:61:98:63:0B

            X509v3 Subject Key Identifier: 
                E1:8B:D1:C3:3D:E9:73:20:3F:DB:CB:6A:22:9E:57:14:61:98:63:0B
            X509v3 Extended Key Usage: 
                Code Signing
    Signature Algorithm: md5WithRSAEncryption
         78:ab:50:6e:1c:2e:d1:11:d0:95:75:31:52:73:2f:90:0b:6e:
         de:e0:2f:80:3d:06:39:dc:03:b8:69:91:de:d8:1c:c5:44:3b:
         77:6f:6d:ae:33:c3:98:23:e5:5f:18:83:b6:1a:ae:bf:47:8e:
         25:53:98:2b:d7:b5:36:f6:54:e6:41:53:6a:5e:5e:e7:06:97:
         a8:69:25:c1:78:12:c6:67:1c:f6:41:4d:68:08:12:41:d8:ff:
         25:9f:2e:e5:8d:e7:25:45:b9:3e:c2:9d:f6:7d:45:5e:4a:19:
         4f:3c:43:ce:7d:9c:c1:d6:d2:fd:7c:39:e2:91:31:27:da:32:
         3f:33
-----BEGIN CERTIFICATE-----
MIICjjCCAfcCAhI7MA0GCSqGSIb3DQEBBAUAMBgxFjAUBgNVBAoMDU1DQUwgV1RG
IEdNYmgwHhcNMjIxMTMwMDAzNTE1WhcNMjMxMTMwMDAzNTE1WjAZMRcwFQYDVQQD
DA5TZWxmIFNpZ25lZCAxMDCCASIwDQYJKoZIhvcNAQEBBQADggEPADCCAQoCggEB
ALgk2VlaEiNNWgUvg3TNbzGeLYhPnjJIaktnBvY5J8BQXJhIp/8szpRVT4Gu7riy
/+ANFMBYm/aQ8vN8pXtdVFG1IC76pqhTY+9YkMEqDWR6wgNzlRKoYXSxFgt7x3Vi
XWUAksyQR9w3tMl+jztxIM9iJe7Txhrzwqai8dXvDqkb2dZZM8hT4TvGl7Hyl2aM
YojMjGcp5sRZ7Hnoghpwx2T1A7mWko4pVxeJHUHdzRfrXBsciFd9U61qvirtsq+m
eaHOMTJu6oHALPWzNnYGPJQRPjVCQP1VmckUA5Cnz5cTEn79/o7k4zkb4B/WETZ9
42FkknFZtTanb03JVwgdwn0CAwEAAaNnMGUwDgYDVR0PAQH/BAQDAgeAMB8GA1Ud
IwQYMBaAFOGL0cM96XMgP9vLaiKeVxRhmGMLMB0GA1UdDgQWBBThi9HDPelzID/b
y2oinlcUYZhjCzATBgNVHSUEDDAKBggrBgEFBQcDAzANBgkqhkiG9w0BAQQFAAOB
gQB4q1BuHC7REdCVdTFScy+QC27e4C+APQY53AO4aZHe2BzFRDt3b22uM8OYI+Vf
GIO2Gq6/R44lU5gr17U29lTmQVNqXl7nBpeoaSXBeBLGZxz2QU1oCBJB2P8lny7l
jeclRbk+wp32fUVeShlPPEPOfZzB1tL9fDnikTEn2jI/Mw==
-----END CERTIFICATE-----
