Certificate:
    Data:
        Version: 3 (0x2)
        Serial Number: 4668 (0x123c)
    Signature Algorithm: md5WithRSAEncryption
        Issuer: O=MCAL WTF GMbh
        Validity
            Not Before: Nov 30 00:50:44 2022 GMT
            Not After : Nov 30 00:50:44 2023 GMT
        Subject: CN=Self Signed 11
        Subject Public Key Info:
            Public Key Algorithm: rsaEncryption
                Public-Key: (2048 bit)
                Modulus:
                    00:ca:34:87:64:51:66:54:ea:63:31:64:db:c9:05:
                    b1:27:e8:50:c9:1f:8d:6f:3b:69:3d:c3:c4:7a:d8:
                    fa:0a:9b:49:91:ab:3c:21:e2:72:3b:6d:f1:52:44:
                    eb:d8:ec:20:c1:94:78:e7:f3:2b:16:a6:de:1e:c8:
                    e5:7a:04:66:cf:50:e1:ea:65:48:31:3d:69:a6:b4:
                    bb:a9:41:db:79:50:33:a9:a3:6e:82:ce:b1:26:91:
                    eb:f2:33:93:de:3a:7c:27:ea:b3:98:ee:aa:bf:63:
                    d6:24:1e:0a:e4:f8:2c:4b:14:fa:60:22:ba:81:ee:
                    e3:77:06:af:96:cb:ed:3d:70:d9:d7:d7:bb:d0:8a:
                    f5:56:dd:3f:7c:25:a3:47:7e:f4:56:77:7a:0d:f6:
                    a7:02:24:b0:bc:53:45:4c:4b:b4:f9:3d:9c:23:06:
                    98:d4:ea:b0:b9:78:3e:f1:34:a4:5a:1d:b5:c3:0f:
                    25:42:3b:9b:ec:f8:ef:3c:79:c6:56:1f:d5:3d:15:
                    b7:dc:96:cf:c5:8f:11:0b:73:bd:97:a2:02:09:30:
                    b1:95:d5:7f:fe:22:c9:65:a3:fe:97:16:52:05:32:
                    a6:69:6b:8e:7d:3b:11:79:2a:0d:2b:1e:6f:84:a5:
                    d9:80:38:cd:b3:21:26:c2:2d:6a:8d:b3:75:e5:7a:
                    05:e7
                Exponent: 65537 (0x10001)
        X509v3 extensions:
            X509v3 Subject Key Identifier: 
                4C:00:45:27:AE:BF:8C:2F:D2:02:5B:C7:E7:37:EC:02:EE:35:0B:65
            X509v3 Basic Constraints: critical
                CA:TRUE
            X509v3 Key Usage: critical
                Certificate Sign, CRL Sign
            X509v3 Authority Key Identifier: 
                keyid:4C:00:45:27:AE:BF:8C:2F:D2:02:5B:C7:E7:37:EC:02:EE:35:0B:65

            X509v3 Extended Key Usage: 
                Code Signing
    Signature Algorithm: md5WithRSAEncryption
         5e:50:fb:28:60:cf:ad:80:99:7d:98:cb:30:a3:98:fb:c2:8c:
         68:5c:50:5c:34:d1:47:5b:25:f2:c0:54:41:4b:d5:92:8b:91:
         34:be:be:50:f0:b3:4a:f9:44:19:4a:cc:b7:2d:80:19:4e:eb:
         f4:f8:5b:ed:53:83:d5:6b:cf:b7:4e:ba:1b:32:07:37:aa:02:
         d6:7f:2a:64:d8:1d:76:40:d1:5f:6b:f8:4c:c9:a3:f3:2f:b3:
         95:2e:99:13:cb:5e:d5:79:ad:5d:c1:1f:89:b7:1b:50:8d:76:
         1a:06:7b:f0:a8:fd:3b:a8:c1:7d:3c:17:10:1c:f2:7a:57:65:
         5c:7f
-----BEGIN CERTIFICATE-----
MIICpDCCAg2gAwIBAgICEjwwDQYJKoZIhvcNAQEEBQAwGDEWMBQGA1UECgwNTUNB
TCBXVEYgR01iaDAeFw0yMjExMzAwMDUwNDRaFw0yMzExMzAwMDUwNDRaMBkxFzAV
BgNVBAMMDlNlbGYgU2lnbmVkIDExMIIBIjANBgkqhkiG9w0BAQEFAAOCAQ8AMIIB
CgKCAQEAyjSHZFFmVOpjMWTbyQWxJ+hQyR+NbztpPcPEetj6CptJkas8IeJyO23x
UkTr2OwgwZR45/MrFqbeHsjlegRmz1Dh6mVIMT1pprS7qUHbeVAzqaNugs6xJpHr
8jOT3jp8J+qzmO6qv2PWJB4K5PgsSxT6YCK6ge7jdwavlsvtPXDZ19e70Ir1Vt0/
fCWjR370Vnd6DfanAiSwvFNFTEu0+T2cIwaY1OqwuXg+8TSkWh21ww8lQjub7Pjv
PHnGVh/VPRW33JbPxY8RC3O9l6ICCTCxldV//iLJZaP+lxZSBTKmaWuOfTsReSoN
Kx5vhKXZgDjNsyEmwi1qjbN15XoF5wIDAQABo3gwdjAdBgNVHQ4EFgQUTABFJ66/
jC/SAlvH5zfsAu41C2UwDwYDVR0TAQH/BAUwAwEB/zAOBgNVHQ8BAf8EBAMCAQYw
HwYDVR0jBBgwFoAUTABFJ66/jC/SAlvH5zfsAu41C2UwEwYDVR0lBAwwCgYIKwYB
BQUHAwMwDQYJKoZIhvcNAQEEBQADgYEAXlD7KGDPrYCZfZjLMKOY+8KMaFxQXDTR
R1sl8sBUQUvVkouRNL6+UPCzSvlEGUrMty2AGU7r9Phb7VOD1WvPt066GzIHN6oC
1n8qZNgddkDRX2v4TMmj8y+zlS6ZE8te1XmtXcEfibcbUI12GgZ78Kj9O6jBfTwX
EBzyeldlXH8=
-----END CERTIFICATE-----
