Certificate:
    Data:
        Version: 3 (0x2)
        Serial Number: 4669 (0x123d)
    Signature Algorithm: md5WithRSAEncryption
        Issuer: O=MCAL WTF GMbh
        Validity
            Not Before: Nov 30 00:57:06 2022 GMT
            Not After : Nov 30 00:57:06 2023 GMT
        Subject: CN=Self Signed 12
        Subject Public Key Info:
            Public Key Algorithm: rsaEncryption
                Public-Key: (2048 bit)
                Modulus:
                    00:a9:85:ce:50:1f:cb:1b:35:e2:67:3f:cf:a7:b7:
                    9e:d9:c8:bc:5a:56:90:8b:d4:eb:70:e3:ea:1a:89:
                    a3:8b:98:79:06:c6:57:2e:40:6e:5a:b5:62:9c:b2:
                    dc:53:75:6e:7d:bf:38:a3:d0:ff:35:9b:7d:b3:7d:
                    7a:05:84:88:5b:2d:16:7c:4c:c4:5e:e8:49:91:f5:
                    f3:6a:86:8e:55:0d:3e:d5:ad:11:fe:40:e8:00:f4:
                    af:3b:44:77:96:7e:a5:18:69:af:b2:75:3c:28:68:
                    89:fa:ce:b9:fe:cf:79:06:bd:8c:1f:ee:f4:38:cc:
                    cf:6c:a1:d9:b3:42:97:ea:e5:c8:46:3b:1b:b7:d2:
                    f5:4a:86:fb:58:36:20:de:ba:5c:b8:2b:39:b7:3b:
                    dd:87:64:6a:05:dd:be:a1:fa:2d:b9:c9:70:3f:89:
                    71:be:77:67:7e:a3:84:db:c5:aa:2f:aa:f1:f0:8f:
                    e7:ab:e5:ba:43:f9:63:65:96:97:5e:f0:41:02:f1:
                    22:b3:b0:87:07:a2:70:9b:3c:d8:c8:9d:3f:6e:15:
                    52:38:50:df:be:ef:bc:04:48:0d:b4:36:af:63:01:
                    16:e7:da:44:42:14:15:55:d0:62:5a:cc:11:ab:ab:
                    48:af:3e:7c:60:64:c0:3f:69:d8:6b:3f:9a:79:94:
                    db:21
                Exponent: 65537 (0x10001)
        X509v3 extensions:
            X509v3 Subject Key Identifier: 
                B8:09:69:27:A9:30:28:AF:B9:7D:D4:D4:71:73:9F:02:87:5F:48:E7
            X509v3 Basic Constraints: critical
                CA:TRUE
            X509v3 Key Usage: critical
                Certificate Sign, CRL Sign
            X509v3 Extended Key Usage: critical
                Code Signing
            X509v3 Authority Key Identifier: 
                keyid:B8:09:69:27:A9:30:28:AF:B9:7D:D4:D4:71:73:9F:02:87:5F:48:E7

    Signature Algorithm: md5WithRSAEncryption
         6a:3e:5f:b5:6a:c0:33:52:11:63:1c:76:66:49:2e:2e:1a:63:
         b2:f4:c0:7f:16:bb:c6:77:58:fb:30:da:e4:af:90:89:cf:c0:
         a3:ac:58:bf:86:65:17:2b:30:62:6a:01:2e:ba:73:e9:9b:0e:
         73:01:23:2e:e5:1b:16:2a:2a:3c:53:34:c2:48:3f:76:f3:2f:
         30:9d:74:40:62:7a:c9:df:89:98:19:b9:f7:2e:0e:09:17:c9:
         23:65:30:29:7c:05:c2:79:7f:41:67:d5:88:09:94:78:c6:49:
         2c:c8:39:e4:c2:3e:b6:ae:38:8a:f1:f5:e3:70:f6:a3:1c:be:
         6a:2d
-----BEGIN CERTIFICATE-----
MIICpzCCAhCgAwIBAgICEj0wDQYJKoZIhvcNAQEEBQAwGDEWMBQGA1UECgwNTUNB
TCBXVEYgR01iaDAeFw0yMjExMzAwMDU3MDZaFw0yMzExMzAwMDU3MDZaMBkxFzAV
BgNVBAMMDlNlbGYgU2lnbmVkIDEyMIIBIjANBgkqhkiG9w0BAQEFAAOCAQ8AMIIB
CgKCAQEAqYXOUB/LGzXiZz/Pp7ee2ci8WlaQi9TrcOPqGomji5h5BsZXLkBuWrVi
nLLcU3Vufb84o9D/NZt9s316BYSIWy0WfEzEXuhJkfXzaoaOVQ0+1a0R/kDoAPSv
O0R3ln6lGGmvsnU8KGiJ+s65/s95Br2MH+70OMzPbKHZs0KX6uXIRjsbt9L1Sob7
WDYg3rpcuCs5tzvdh2RqBd2+ofotuclwP4lxvndnfqOE28WqL6rx8I/nq+W6Q/lj
ZZaXXvBBAvEis7CHB6JwmzzYyJ0/bhVSOFDfvu+8BEgNtDavYwEW59pEQhQVVdBi
WswRq6tIrz58YGTAP2nYaz+aeZTbIQIDAQABo3sweTAdBgNVHQ4EFgQUuAlpJ6kw
KK+5fdTUcXOfAodfSOcwDwYDVR0TAQH/BAUwAwEB/zAOBgNVHQ8BAf8EBAMCAQYw
FgYDVR0lAQH/BAwwCgYIKwYBBQUHAwMwHwYDVR0jBBgwFoAUuAlpJ6kwKK+5fdTU
cXOfAodfSOcwDQYJKoZIhvcNAQEEBQADgYEAaj5ftWrAM1IRYxx2ZkkuLhpjsvTA
fxa7xndY+zDa5K+Qic/Ao6xYv4ZlFyswYmoBLrpz6ZsOcwEjLuUbFioqPFM0wkg/
dvMvMJ10QGJ6yd+JmBm59y4OCRfJI2UwKXwFwnl/QWfViAmUeMZJLMg55MI+tq44
ivH143D2oxy+ai0=
-----END CERTIFICATE-----
