Certificate:
    Data:
        Version: 3 (0x2)
        Serial Number: 4670 (0x123e)
    Signature Algorithm: md5WithRSAEncryption
        Issuer: O=MCAL WTF GMbh
        Validity
            Not Before: Nov 30 01:08:15 2022 GMT
            Not After : Nov 30 01:08:15 2023 GMT
        Subject: CN=Self signed 13
        Subject Public Key Info:
            Public Key Algorithm: rsaEncryption
                Public-Key: (2048 bit)
                Modulus:
                    00:c6:b4:f5:20:a0:2e:5a:dd:8a:92:f6:1f:f4:e4:
                    a8:b8:29:8b:6e:d0:d2:8d:08:4d:6e:0e:37:5c:13:
                    8e:fa:5a:9c:a9:ac:4f:48:02:f1:ba:cd:bb:42:4a:
                    02:32:0e:55:85:94:84:b7:aa:44:5f:a7:c3:c1:1b:
                    27:7a:5c:f0:cf:1f:82:10:7c:eb:41:35:79:68:91:
                    86:58:90:a9:7c:c5:cf:15:5f:76:10:e7:c7:a9:01:
                    e8:f1:55:47:d9:5a:66:e5:a0:40:83:36:96:c9:d6:
                    8b:f6:f9:3c:bd:a1:be:83:bb:b0:ea:44:0f:b5:fc:
                    b2:87:1d:89:7e:81:82:c4:66:ca:e9:a1:00:73:7a:
                    ec:8a:44:29:8a:c7:25:bb:57:8f:76:2b:52:57:bf:
                    1b:49:65:6e:7d:dd:3a:95:ab:b1:4b:72:48:35:d7:
                    52:c9:8c:45:5f:41:73:a9:99:1d:92:88:dc:64:50:
                    f8:b4:78:50:df:58:a4:aa:80:72:7a:91:84:06:a5:
                    d6:f1:2e:11:30:db:87:d0:83:7d:2c:06:fa:23:44:
                    69:17:65:42:8b:6e:9c:ff:bd:ba:ad:23:3d:0d:6b:
                    44:eb:13:0d:ea:1f:75:c9:5f:2d:36:aa:1b:89:99:
                    72:a1:6b:5e:e0:ea:63:78:ec:37:63:92:39:59:74:
                    de:fd
                Exponent: 65537 (0x10001)
        X509v3 extensions:
            X509v3 Subject Key Identifier: 
                CE:98:58:FF:06:96:80:36:D8:48:BE:3B:38:2F:53:8F:E7:00:BA:80
            X509v3 Basic Constraints: critical
                CA:TRUE
            X509v3 Key Usage: critical
                Digital Signature, Certificate Sign, CRL Sign
            X509v3 Extended Key Usage: critical
                Code Signing
            X509v3 Authority Key Identifier: 
                keyid:CE:98:58:FF:06:96:80:36:D8:48:BE:3B:38:2F:53:8F:E7:00:BA:80

    Signature Algorithm: md5WithRSAEncryption
         16:7d:39:0f:e2:f2:31:5d:67:e2:9a:3e:7b:a5:11:1f:68:4b:
         03:74:8e:96:cd:ef:b6:43:e4:f9:b0:5b:bf:71:b1:3e:96:3d:
         c6:09:a4:b6:83:ad:1c:db:16:93:1c:11:7d:ca:f5:b2:a9:60:
         10:1b:9c:71:72:10:57:9d:42:02:f9:10:6e:73:a6:bd:38:31:
         f5:a1:d8:54:c6:ac:6e:94:c9:31:0b:99:e5:0f:d9:2c:0d:9f:
         14:f9:9a:21:6a:8d:7f:9d:53:3b:43:61:62:87:d9:95:67:e9:
         b1:9d:62:a9:ca:7a:7b:a6:e4:32:de:91:b3:f5:21:90:74:05:
         70:4b
-----BEGIN CERTIFICATE-----
MIICpzCCAhCgAwIBAgICEj4wDQYJKoZIhvcNAQEEBQAwGDEWMBQGA1UECgwNTUNB
TCBXVEYgR01iaDAeFw0yMjExMzAwMTA4MTVaFw0yMzExMzAwMTA4MTVaMBkxFzAV
BgNVBAMMDlNlbGYgc2lnbmVkIDEzMIIBIjANBgkqhkiG9w0BAQEFAAOCAQ8AMIIB
CgKCAQEAxrT1IKAuWt2KkvYf9OSouCmLbtDSjQhNbg43XBOO+lqcqaxPSALxus27
QkoCMg5VhZSEt6pEX6fDwRsnelzwzx+CEHzrQTV5aJGGWJCpfMXPFV92EOfHqQHo
8VVH2Vpm5aBAgzaWydaL9vk8vaG+g7uw6kQPtfyyhx2JfoGCxGbK6aEAc3rsikQp
isclu1ePditSV78bSWVufd06lauxS3JINddSyYxFX0FzqZkdkojcZFD4tHhQ31ik
qoByepGEBqXW8S4RMNuH0IN9LAb6I0RpF2VCi26c/726rSM9DWtE6xMN6h91yV8t
NqobiZlyoWte4OpjeOw3Y5I5WXTe/QIDAQABo3sweTAdBgNVHQ4EFgQUzphY/waW
gDbYSL47OC9Tj+cAuoAwDwYDVR0TAQH/BAUwAwEB/zAOBgNVHQ8BAf8EBAMCAYYw
FgYDVR0lAQH/BAwwCgYIKwYBBQUHAwMwHwYDVR0jBBgwFoAUzphY/waWgDbYSL47
OC9Tj+cAuoAwDQYJKoZIhvcNAQEEBQADgYEAFn05D+LyMV1n4po+e6URH2hLA3SO
ls3vtkPk+bBbv3GxPpY9xgmktoOtHNsWkxwRfcr1sqlgEBuccXIQV51CAvkQbnOm
vTgx9aHYVMasbpTJMQuZ5Q/ZLA2fFPmaIWqNf51TO0NhYofZlWfpsZ1iqcp6e6bk
Mt6Rs/UhkHQFcEs=
-----END CERTIFICATE-----
